; Function Attrs: mustprogress uwtable
define noundef zeroext i1 @_ZN6google8protobuf8internal21InitializeEnumStringsEPKNS1_9EnumEntryEPKimPNS1_21ExplicitlyConstructedINSt7__cxx1112basic_stringIcSt11char_traitsIcESaIcEEELm1EEE(ptr noundef readonly captures(none) %enums, ptr noundef readonly captures(none) %sorted_indices, i64 noundef %size, ptr noundef %enum_strings) local_unnamed_addr #5 personality ptr @__gxx_personality_v0 {
entry:
  %agg.tmp.i.i = alloca %"struct.std::__cxx11::basic_string<char>::__sv_wrapper", align 8
  %ref.tmp.i = alloca %"class.std::allocator.11", align 1
  %cmp6.not = icmp eq i64 %size, 0
  br i1 %cmp6.not, label %for.end, label %for.body.lr.ph

for.body.lr.ph:                                   ; preds = %entry
  %0 = getelementptr inbounds nuw i8, ptr %agg.tmp.i.i, i64 8
  br label %for.body

for.body:                                         ; preds = %for.body.lr.ph, %_ZN6google8protobuf8internal21ExplicitlyConstructedINSt7__cxx1112basic_stringIcSt11char_traitsIcESaIcEEELm1EE9ConstructIJRKSt17basic_string_viewIcS6_EEEEvDpOT_.exit
  %i.07 = phi i64 [ 0, %for.body.lr.ph ], [ %inc, %_ZN6google8protobuf8internal21ExplicitlyConstructedINSt7__cxx1112basic_stringIcSt11char_traitsIcESaIcEEELm1EE9ConstructIJRKSt17basic_string_viewIcS6_EEEEvDpOT_.exit ]
  %arrayidx = getelementptr inbounds %"class.google::protobuf::internal::ExplicitlyConstructed", ptr %enum_strings, i64 %i.07
  %arrayidx1 = getelementptr inbounds i32, ptr %sorted_indices, i64 %i.07
  %1 = load i32, ptr %arrayidx1, align 4
  %idxprom = sext i32 %1 to i64
  %arrayidx2 = getelementptr inbounds %"struct.google::protobuf::internal::EnumEntry", ptr %enums, i64 %idxprom
  call void @llvm.lifetime.start.p0(i64 1, ptr nonnull %ref.tmp.i)
  call void @_ZNSaIcEC1Ev(ptr noundef nonnull align 1 dereferenceable(1) %ref.tmp.i) #17
  call void @llvm.lifetime.start.p0(i64 16, ptr nonnull %agg.tmp.i.i)
  %agg.tmp3.sroa.0.0.copyload.i.i = load i64, ptr %arrayidx2, align 8
  %agg.tmp3.sroa.2.0..sroa_idx.i.i = getelementptr inbounds nuw i8, ptr %arrayidx2, i64 8
  %agg.tmp3.sroa.2.0.copyload.i.i = load ptr, ptr %agg.tmp3.sroa.2.0..sroa_idx.i.i, align 8
  %call.i.i = call { i64, ptr } @_ZNSt7__cxx1112basic_stringIcSt11char_traitsIcESaIcEE17_S_to_string_viewESt17basic_string_viewIcS2_E(i64 %agg.tmp3.sroa.0.0.copyload.i.i, ptr %agg.tmp3.sroa.2.0.copyload.i.i) #17
  %2 = extractvalue { i64, ptr } %call.i.i, 0
  %3 = extractvalue { i64, ptr } %call.i.i, 1
  call void @_ZNSt7__cxx1112basic_stringIcSt11char_traitsIcESaIcEE12__sv_wrapperC1ESt17basic_string_viewIcS2_E(ptr noundef nonnull align 8 dereferenceable(16) %agg.tmp.i.i, i64 %2, ptr %3) #17
  %4 = load i64, ptr %agg.tmp.i.i, align 8
  %5 = load ptr, ptr %0, align 8
  invoke void @_ZNSt7__cxx1112basic_stringIcSt11char_traitsIcESaIcEEC2ENS4_12__sv_wrapperERKS3_(ptr noundef nonnull align 8 dereferenceable(32) %arrayidx, i64 %4, ptr %5, ptr noundef nonnull align 1 dereferenceable(1) %ref.tmp.i)
          to label %_ZN6google8protobuf8internal21ExplicitlyConstructedINSt7__cxx1112basic_stringIcSt11char_traitsIcESaIcEEELm1EE9ConstructIJRKSt17basic_string_viewIcS6_EEEEvDpOT_.exit unwind label %lpad.i

lpad.i:                                           ; preds = %for.body
  %6 = landingpad { ptr, i32 }
          cleanup
  call void @_ZNSaIcED1Ev(ptr noundef nonnull align 1 dereferenceable(1) %ref.tmp.i) #17
  resume { ptr, i32 } %6

_ZN6google8protobuf8internal21ExplicitlyConstructedINSt7__cxx1112basic_stringIcSt11char_traitsIcESaIcEEELm1EE9ConstructIJRKSt17basic_string_viewIcS6_EEEEvDpOT_.exit: ; preds = %for.body
  call void @llvm.lifetime.end.p0(i64 16, ptr nonnull %agg.tmp.i.i)
  call void @_ZNSaIcED1Ev(ptr noundef nonnull align 1 dereferenceable(1) %ref.tmp.i) #17
  call void @llvm.lifetime.end.p0(i64 1, ptr nonnull %ref.tmp.i)
  call void @_ZN6google8protobuf8internal13OnShutdownRunEPFvPKvES3_(ptr noundef nonnull @_ZN6google8protobuf8internal13DestroyStringEPKv, ptr noundef nonnull %arrayidx)
  %inc = add nuw i64 %i.07, 1
  %exitcond.not = icmp eq i64 %inc, %size
  br i1 %exitcond.not, label %for.end, label %for.body, !llvm.loop !7

for.end:                                          ; preds = %_ZN6google8protobuf8internal21ExplicitlyConstructedINSt7__cxx1112basic_stringIcSt11char_traitsIcESaIcEEELm1EE9ConstructIJRKSt17basic_string_viewIcS6_EEEEvDpOT_.exit, %entry
  ret i1 true
}